; Function Attrs: nounwind uwtable
define hidden void @av1_dec_free_cb_buf(ptr nocapture noundef %0) local_unnamed_addr #0 {
  %2 = getelementptr inbounds nuw i8, ptr %0, i64 458800
  %3 = load ptr, ptr %2, align 16
  tail call void @aom_free(ptr noundef %3) #10
  store ptr null, ptr %2, align 16
  %4 = getelementptr inbounds nuw i8, ptr %0, i64 458808
  store i32 0, ptr %4, align 8
  ret void
}